target datalayout = "e-m:e-p270:32:32-p271:32:32-p272:64:64-i64:64-i128:128-f80:128-n8:16:32:64-S128"
target triple = "x86_64-pc-linux-gnu"

%struct.UOption = type { ptr, ptr, ptr, ptr, i8, i8, i8 }

@VERBOSE = dso_local global i8 0, align 1
@QUIET = dso_local global i8 0, align 1
@haveCopyright = dso_local global i8 1, align 1
@trieType = dso_local global i32 1, align 4
@destdir = dso_local global ptr @.str, align 8
@stderr = external global ptr, align 8
@stdout = external global ptr, align 8
@.str.64 = private unnamed_addr constant [7 x i8] c"uprops\00", align 1
@.str.66 = private unnamed_addr constant [5 x i8] c"fast\00", align 1
@.str.67 = private unnamed_addr constant [6 x i8] c"small\00", align 1
@.str.68 = private unnamed_addr constant [56 x i8] c"Invalid option for --trie-type (must be small or fast)\0A\00", align 1
@.str.71 = private unnamed_addr constant [5 x i8] c"77.1\00", align 1
@.str.78 = private unnamed_addr constant [6 x i8] c"ucase\00", align 1
@.str.90 = private unnamed_addr constant [78 x i8] c"icuexportdata version %s, ICU tool to dump data files for external consumers\0A\00", align 1
@.str.91 = private unnamed_addr constant [4 x i8] c"%s\0A\00", align 1
@.str.92 = private unnamed_addr constant [120 x i8] c" Copyright (C) 2016 and later: Unicode, Inc. and others. License & terms of use: http://www.unicode.org/copyright.html \00", align 1
@.str.93 = private unnamed_addr constant [37 x i8] c"error in command line argument \22%s\22\0A\00", align 1
@.str.94 = private unnamed_addr constant [5 x i8] c"norm\00", align 1
@.str.95 = private unnamed_addr constant [60 x i8] c"Invalid option for --mode (must be uprops, ucase, or norm)\0A\00", align 1

; Function Attrs: mustprogress nounwind uwtable
define dso_local void @_Z9printHelpP8_IO_FILEPKc(ptr noundef %0, ptr noundef %1) #4 {
  %3 = alloca ptr, align 8
  %4 = alloca ptr, align 8
  store ptr %0, ptr %3, align 8, !tbaa !36
  store ptr %1, ptr %4, align 8, !tbaa !18
  %5 = load ptr, ptr %3, align 8, !tbaa !36
  %6 = load ptr, ptr %4, align 8, !tbaa !18
  %7 = call i32 (ptr, ptr, ...) @fprintf(ptr noundef %5, ptr noundef @.str.60, ptr noundef %6) #3
  ret void
}

; Function Attrs: mustprogress norecurse uwtable
define dso_local noundef i32 @main(i32 noundef %0, ptr noundef %1) #15 {
  %3 = alloca i32, align 4
  %4 = alloca i32, align 4
  %5 = alloca ptr, align 8
  %6 = alloca ptr, align 8
  %7 = alloca ptr, align 8
  %8 = alloca i32, align 4
  store i32 0, ptr %3, align 4
  store i32 %0, ptr %4, align 4, !tbaa !15
  store ptr %1, ptr %5, align 8, !tbaa !155
  %9 = call ptr @u_getDataDirectory_77()
  store ptr %9, ptr getelementptr inbounds nuw (%struct.UOption, ptr getelementptr inbounds nuw ([11 x %struct.UOption], ptr @_ZL7options, i64 0, i64 5), i32 0, i32 1), align 8, !tbaa !162
  %10 = load i32, ptr %4, align 4, !tbaa !15
  %11 = load ptr, ptr %5, align 8, !tbaa !155
  %12 = call i32 @u_parseArgs(i32 noundef %10, ptr noundef %11, i32 noundef 11, ptr noundef @_ZL7options)
  store i32 %12, ptr %4, align 4, !tbaa !15
  %13 = load i8, ptr getelementptr inbounds nuw (%struct.UOption, ptr getelementptr inbounds nuw ([11 x %struct.UOption], ptr @_ZL7options, i64 0, i64 4), i32 0, i32 6), align 2, !tbaa !159
  %14 = icmp ne i8 %13, 0
  br i1 %14, label %15, label %18

15:                                               ; preds = %2
  %16 = call i32 (ptr, ...) @printf(ptr noundef @.str.90, ptr noundef @.str.71)
  %17 = call i32 (ptr, ...) @printf(ptr noundef @.str.91, ptr noundef @.str.92)
  call void @exit(i32 noundef 0) #21
  unreachable

18:                                               ; preds = %2
  %19 = load i32, ptr %4, align 4, !tbaa !15
  %20 = icmp slt i32 %19, 0
  br i1 %20, label %21, label %30

21:                                               ; preds = %18
  %22 = load ptr, ptr @stderr, align 8, !tbaa !36
  %23 = load ptr, ptr %5, align 8, !tbaa !155
  %24 = load i32, ptr %4, align 4, !tbaa !15
  %25 = sub nsw i32 0, %24
  %26 = sext i32 %25 to i64
  %27 = getelementptr inbounds ptr, ptr %23, i64 %26
  %28 = load ptr, ptr %27, align 8, !tbaa !18
  %29 = call i32 (ptr, ptr, ...) @fprintf(ptr noundef %22, ptr noundef @.str.93, ptr noundef %28) #3
  br label %30

30:                                               ; preds = %21, %18
  %31 = load i32, ptr %4, align 4, !tbaa !15
  %32 = icmp slt i32 %31, 0
  br i1 %32, label %42, label %33

33:                                               ; preds = %30
  %34 = load i8, ptr getelementptr inbounds nuw (%struct.UOption, ptr @_ZL7options, i32 0, i32 6), align 2, !tbaa !159
  %35 = icmp ne i8 %34, 0
  br i1 %35, label %42, label %36

36:                                               ; preds = %33
  %37 = load i8, ptr getelementptr inbounds nuw (%struct.UOption, ptr getelementptr inbounds nuw ([11 x %struct.UOption], ptr @_ZL7options, i64 0, i64 1), i32 0, i32 6), align 2, !tbaa !159
  %38 = icmp ne i8 %37, 0
  br i1 %38, label %42, label %39

39:                                               ; preds = %36
  %40 = load i8, ptr getelementptr inbounds nuw (%struct.UOption, ptr getelementptr inbounds nuw ([11 x %struct.UOption], ptr @_ZL7options, i64 0, i64 2), i32 0, i32 6), align 2, !tbaa !159
  %41 = icmp ne i8 %40, 0
  br i1 %41, label %58, label %42

42:                                               ; preds = %39, %36, %33, %30
  call void @llvm.lifetime.start.p0(i64 8, ptr %6) #3
  %43 = load i32, ptr %4, align 4, !tbaa !15
  %44 = icmp slt i32 %43, 0
  br i1 %44, label %45, label %47

45:                                               ; preds = %42
  %46 = load ptr, ptr @stderr, align 8, !tbaa !36
  br label %49

47:                                               ; preds = %42
  %48 = load ptr, ptr @stdout, align 8, !tbaa !36
  br label %49

49:                                               ; preds = %47, %45
  %50 = phi ptr [ %46, %45 ], [ %48, %47 ]
  store ptr %50, ptr %6, align 8, !tbaa !36
  %51 = load ptr, ptr %6, align 8, !tbaa !36
  %52 = load ptr, ptr %5, align 8, !tbaa !155
  %53 = getelementptr inbounds ptr, ptr %52, i64 0
  %54 = load ptr, ptr %53, align 8, !tbaa !18
  call void @_Z9printHelpP8_IO_FILEPKc(ptr noundef %51, ptr noundef %54)
  %55 = load i32, ptr %4, align 4, !tbaa !15
  %56 = icmp slt i32 %55, 0
  %57 = select i1 %56, i32 1, i32 0
  store i32 %57, ptr %3, align 4
  call void @llvm.lifetime.end.p0(i64 8, ptr %6) #3
  br label %108

58:                                               ; preds = %39
  %59 = load i8, ptr getelementptr inbounds nuw (%struct.UOption, ptr getelementptr inbounds nuw ([11 x %struct.UOption], ptr @_ZL7options, i64 0, i64 8), i32 0, i32 6), align 2, !tbaa !159
  store i8 %59, ptr @haveCopyright, align 1, !tbaa !105
  %60 = load ptr, ptr getelementptr inbounds nuw (%struct.UOption, ptr getelementptr inbounds nuw ([11 x %struct.UOption], ptr @_ZL7options, i64 0, i64 5), i32 0, i32 1), align 8, !tbaa !162
  store ptr %60, ptr @destdir, align 8, !tbaa !18
  %61 = load i8, ptr getelementptr inbounds nuw (%struct.UOption, ptr getelementptr inbounds nuw ([11 x %struct.UOption], ptr @_ZL7options, i64 0, i64 9), i32 0, i32 6), align 2, !tbaa !159
  store i8 %61, ptr @VERBOSE, align 1, !tbaa !105
  %62 = load i8, ptr getelementptr inbounds nuw (%struct.UOption, ptr getelementptr inbounds nuw ([11 x %struct.UOption], ptr @_ZL7options, i64 0, i64 10), i32 0, i32 6), align 2, !tbaa !159
  store i8 %62, ptr @QUIET, align 1, !tbaa !105
  %63 = load i8, ptr getelementptr inbounds nuw (%struct.UOption, ptr getelementptr inbounds nuw ([11 x %struct.UOption], ptr @_ZL7options, i64 0, i64 3), i32 0, i32 6), align 2, !tbaa !159
  %64 = icmp ne i8 %63, 0
  br i1 %64, label %65, label %80

65:                                               ; preds = %58
  %66 = load ptr, ptr getelementptr inbounds nuw (%struct.UOption, ptr getelementptr inbounds nuw ([11 x %struct.UOption], ptr @_ZL7options, i64 0, i64 3), i32 0, i32 1), align 8, !tbaa !162
  %67 = call i32 @strcmp(ptr noundef %66, ptr noundef @.str.66) #23
  %68 = icmp eq i32 %67, 0
  br i1 %68, label %69, label %70

69:                                               ; preds = %65
  store i32 0, ptr @trieType, align 4, !tbaa !56
  br label %79

70:                                               ; preds = %65
  %71 = load ptr, ptr getelementptr inbounds nuw (%struct.UOption, ptr getelementptr inbounds nuw ([11 x %struct.UOption], ptr @_ZL7options, i64 0, i64 3), i32 0, i32 1), align 8, !tbaa !162
  %72 = call i32 @strcmp(ptr noundef %71, ptr noundef @.str.67) #23
  %73 = icmp eq i32 %72, 0
  br i1 %73, label %74, label %75

74:                                               ; preds = %70
  store i32 1, ptr @trieType, align 4, !tbaa !56
  br label %78

75:                                               ; preds = %70
  %76 = load ptr, ptr @stderr, align 8, !tbaa !36
  %77 = call i32 (ptr, ptr, ...) @fprintf(ptr noundef %76, ptr noundef @.str.68) #3
  store i32 1, ptr %3, align 4
  br label %108

78:                                               ; preds = %74
  br label %79

79:                                               ; preds = %78, %69
  br label %80

80:                                               ; preds = %79, %58
  call void @llvm.lifetime.start.p0(i64 8, ptr %7) #3
  %81 = load ptr, ptr getelementptr inbounds nuw (%struct.UOption, ptr getelementptr inbounds nuw ([11 x %struct.UOption], ptr @_ZL7options, i64 0, i64 2), i32 0, i32 1), align 8, !tbaa !162
  store ptr %81, ptr %7, align 8, !tbaa !18
  %82 = load ptr, ptr %7, align 8, !tbaa !18
  %83 = call i32 @strcmp(ptr noundef %82, ptr noundef @.str.94) #23
  %84 = icmp eq i32 %83, 0
  br i1 %84, label %85, label %87

85:                                               ; preds = %80
  %86 = call noundef i32 @_Z10exportNormv()
  store i32 %86, ptr %3, align 4
  store i32 1, ptr %8, align 4
  br label %107

87:                                               ; preds = %80
  %88 = load ptr, ptr %7, align 8, !tbaa !18
  %89 = call i32 @strcmp(ptr noundef %88, ptr noundef @.str.64) #23
  %90 = icmp eq i32 %89, 0
  br i1 %90, label %91, label %95

91:                                               ; preds = %87
  %92 = load i32, ptr %4, align 4, !tbaa !15
  %93 = load ptr, ptr %5, align 8, !tbaa !155
  %94 = call noundef i32 @_Z12exportUpropsiPPc(i32 noundef %92, ptr noundef %93)
  store i32 %94, ptr %3, align 4
  store i32 1, ptr %8, align 4
  br label %107

95:                                               ; preds = %87
  %96 = load ptr, ptr %7, align 8, !tbaa !18
  %97 = call i32 @strcmp(ptr noundef %96, ptr noundef @.str.78) #23
  %98 = icmp eq i32 %97, 0
  br i1 %98, label %99, label %103

99:                                               ; preds = %95
  %100 = load i32, ptr %4, align 4, !tbaa !15
  %101 = load ptr, ptr %5, align 8, !tbaa !155
  %102 = call noundef i32 @_Z10exportCaseiPPc(i32 noundef %100, ptr noundef %101)
  store i32 %102, ptr %3, align 4
  store i32 1, ptr %8, align 4
  br label %107

103:                                              ; preds = %95
  br label %104

104:                                              ; preds = %103
  %105 = load ptr, ptr @stderr, align 8, !tbaa !36
  %106 = call i32 (ptr, ptr, ...) @fprintf(ptr noundef %105, ptr noundef @.str.95) #3
  store i32 1, ptr %3, align 4
  store i32 1, ptr %8, align 4
  br label %107

107:                                              ; preds = %104, %99, %91, %85
  call void @llvm.lifetime.end.p0(i64 8, ptr %7) #3
  br label %108

108:                                              ; preds = %107, %75, %49
  %109 = load i32, ptr %3, align 4
  ret i32 %109
}