; Function Attrs: mustprogress norecurse uwtable
define dso_local noundef range(i32 0, 6) i32 @main(i32 noundef %0, ptr noundef %1) local_unnamed_addr #18 {
  %3 = tail call ptr @u_getDataDirectory_77()
  store ptr %3, ptr getelementptr inbounds nuw (i8, ptr @_ZL7options, i64 208), align 16, !tbaa !161
  %4 = tail call i32 @u_parseArgs(i32 noundef %0, ptr noundef %1, i32 noundef 11, ptr noundef nonnull @_ZL7options)
  %5 = load i8, ptr getelementptr inbounds nuw (i8, ptr @_ZL7options, i64 194), align 2, !tbaa !157
  %.not = icmp eq i8 %5, 0
  br i1 %.not, label %8, label %6

6:                                                ; preds = %2
  %7 = tail call i32 (ptr, ...) @printf(ptr noundef nonnull dereferenceable(1) @.str.90, ptr noundef nonnull @.str.71)
  %puts = tail call i32 @puts(ptr nonnull dereferenceable(1) @.str.92)
  tail call void @exit(i32 noundef 0) #30
  unreachable

8:                                                ; preds = %2
  %9 = icmp sgt i32 %4, -1
  br i1 %9, label %17, label %10

10:                                               ; preds = %8
  %11 = load ptr, ptr @stderr, align 8, !tbaa !162
  %12 = sub nsw i32 0, %4
  %13 = zext nneg i32 %12 to i64
  %14 = getelementptr inbounds nuw ptr, ptr %1, i64 %13
  %15 = load ptr, ptr %14, align 8, !tbaa !63
  %16 = tail call i32 (ptr, ptr, ...) @fprintf(ptr noundef %11, ptr noundef nonnull @.str.93, ptr noundef %15) #37
  br label %17

17:                                               ; preds = %10, %8
  %18 = load i8, ptr getelementptr inbounds nuw (i8, ptr @_ZL7options, i64 34), align 2
  %19 = icmp eq i8 %18, 0
  %or.cond.not = select i1 %9, i1 %19, i1 false
  %20 = load i8, ptr getelementptr inbounds nuw (i8, ptr @_ZL7options, i64 74), align 2
  %21 = icmp eq i8 %20, 0
  %or.cond3 = select i1 %or.cond.not, i1 %21, i1 false
  %22 = load i8, ptr getelementptr inbounds nuw (i8, ptr @_ZL7options, i64 114), align 2
  %23 = icmp ne i8 %22, 0
  %or.cond5 = select i1 %or.cond3, i1 %23, i1 false
  br i1 %or.cond5, label %31, label %24

24:                                               ; preds = %17
  %25 = load ptr, ptr @stderr, align 8
  %26 = load ptr, ptr @stdout, align 8
  %27 = select i1 %9, ptr %26, ptr %25
  %28 = load ptr, ptr %1, align 8, !tbaa !63
  %29 = tail call i32 (ptr, ptr, ...) @fprintf(ptr noundef %27, ptr noundef nonnull @.str.60, ptr noundef %28) #28
  %not. = xor i1 %9, true
  %30 = zext i1 %not. to i32
  br label %66

31:                                               ; preds = %17
  %32 = load i8, ptr getelementptr inbounds nuw (i8, ptr @_ZL7options, i64 354), align 2, !tbaa !157
  store i8 %32, ptr @haveCopyright, align 1, !tbaa !62
  %33 = load ptr, ptr getelementptr inbounds nuw (i8, ptr @_ZL7options, i64 208), align 16, !tbaa !161
  store ptr %33, ptr @destdir, align 8, !tbaa !63
  %34 = load i8, ptr getelementptr inbounds nuw (i8, ptr @_ZL7options, i64 394), align 2, !tbaa !157
  store i8 %34, ptr @VERBOSE, align 1, !tbaa !62
  %35 = load i8, ptr getelementptr inbounds nuw (i8, ptr @_ZL7options, i64 434), align 2, !tbaa !157
  store i8 %35, ptr @QUIET, align 1, !tbaa !62
  %36 = load i8, ptr getelementptr inbounds nuw (i8, ptr @_ZL7options, i64 154), align 2, !tbaa !157
  %.not25 = icmp eq i8 %36, 0
  br i1 %.not25, label %47, label %37

37:                                               ; preds = %31
  %38 = load ptr, ptr getelementptr inbounds nuw (i8, ptr @_ZL7options, i64 128), align 16, !tbaa !161
  %39 = tail call i32 @strcmp(ptr noundef nonnull dereferenceable(1) %38, ptr noundef nonnull dereferenceable(5) @.str.66) #35
  %40 = icmp eq i32 %39, 0
  br i1 %40, label %.sink.split, label %41

41:                                               ; preds = %37
  %42 = tail call i32 @strcmp(ptr noundef nonnull dereferenceable(1) %38, ptr noundef nonnull dereferenceable(6) @.str.67) #35
  %43 = icmp eq i32 %42, 0
  br i1 %43, label %.sink.split, label %44

44:                                               ; preds = %41
  %45 = load ptr, ptr @stderr, align 8, !tbaa !162
  %46 = tail call i64 @fwrite(ptr nonnull @.str.68, i64 55, i64 1, ptr %45) #36
  br label %66

.sink.split:                                      ; preds = %41, %37
  %.sink = phi i32 [ 0, %37 ], [ 1, %41 ]
  store i32 %.sink, ptr @trieType, align 4, !tbaa !31
  br label %47

47:                                               ; preds = %.sink.split, %31
  %48 = load ptr, ptr getelementptr inbounds nuw (i8, ptr @_ZL7options, i64 88), align 8, !tbaa !161
  %49 = tail call i32 @strcmp(ptr noundef nonnull dereferenceable(1) %48, ptr noundef nonnull dereferenceable(5) @.str.94) #35
  %50 = icmp eq i32 %49, 0
  br i1 %50, label %51, label %53

51:                                               ; preds = %47
  %52 = tail call noundef i32 @_Z10exportNormv()
  br label %66

53:                                               ; preds = %47
  %54 = tail call i32 @strcmp(ptr noundef nonnull dereferenceable(1) %48, ptr noundef nonnull dereferenceable(7) @.str.64) #35
  %55 = icmp eq i32 %54, 0
  br i1 %55, label %56, label %58

56:                                               ; preds = %53
  %57 = tail call noundef i32 @_Z12exportUpropsiPPc(i32 noundef %4, ptr noundef %1)
  br label %66

58:                                               ; preds = %53
  %59 = tail call i32 @strcmp(ptr noundef nonnull dereferenceable(1) %48, ptr noundef nonnull dereferenceable(6) @.str.78) #35
  %60 = icmp eq i32 %59, 0
  br i1 %60, label %61, label %63

61:                                               ; preds = %58
  %62 = tail call noundef i32 @_Z10exportCaseiPPc(i32 noundef %4, ptr poison)
  br label %66

63:                                               ; preds = %58
  %64 = load ptr, ptr @stderr, align 8, !tbaa !162
  %65 = tail call i64 @fwrite(ptr nonnull @.str.95, i64 59, i64 1, ptr %64) #36
  br label %66

66:                                               ; preds = %51, %56, %61, %63, %44, %24
  %.0 = phi i32 [ 1, %44 ], [ %30, %24 ], [ 0, %51 ], [ %57, %56 ], [ %62, %61 ], [ 1, %63 ]
  ret i32 %.0
}